(dp0
Vengine
p1
S'pdflatex'
p2
sVsynctex
p3
I01
sVpackages
p4
c__builtin__
set
p5
((lp6
Vae
p7
aVfancyhdr
p8
aVcolor
p9
aVbiblatex
p10
aVfloat
p11
aVrotating
p12
aVchngpage
p13
aVarray
p14
aVsubcaption
p15
aVmulticol
p16
aVtitlesec
p17
aVglossaries
p18
aVbabel
p19
aVbooktabs
p20
aVtocbibind
p21
aVinputenc
p22
aVlongtable
p23
aVcourier
p24
aVpdfpages
p25
aVmorefloats
p26
aVappendix
p27
aVaecompl
p28
aVchangepage
p29
aVgraphicx
p30
aVhyperref
p31
aVtikz
p32
aVlistings
p33
aVtimes
p34
aVsupertabular
p35
aVcaption
p36
aVtabularx
p37
aVfontenc
p38
aVadjustbox
p39
atp40
Rp41
sVfiles_with_guttermarks
p42
g5
((lp43
V/Users/rikardeide/Dropbox/Skole/master-thesis/sharedlatex/./0_preface.tex
p44
aS'main.tex'
p45
aV/usr/local/texlive/2015/texmf-dist/tex/latex/changepage/changepage.sty
p46
aV/Users/rikardeide/Dropbox/Skole/master-thesis/sharedlatex/5_proposed_design.tex
p47
aV/Users/rikardeide/Dropbox/Skole/master-thesis/sharedlatex/./0_problem_statement.tex
p48
aV/Users/rikardeide/Dropbox/Skole/master-thesis/sharedlatex/6_discussion.tex
p49
aV/Users/rikardeide/Dropbox/Skole/master-thesis/sharedlatex/4_interviews.tex
p50
aV/Users/rikardeide/Dropbox/Skole/master-thesis/sharedlatex/./0_abstract.tex
p51
aV/Users/rikardeide/Dropbox/Skole/master-thesis/sharedlatex/2_method.tex
p52
aV/Users/rikardeide/Dropbox/Skole/master-thesis/sharedlatex/1_introduction.tex
p53
aV/Users/rikardeide/Dropbox/Skole/master-thesis/sharedlatex/0_problem_statement.tex
p54
atp55
Rp56
s.